target datalayout = "e-m:e-p270:32:32-p271:32:32-p272:64:64-i64:64-i128:128-f80:128-n8:16:32:64-S128"
target triple = "x86_64-pc-linux-gnu"

%struct.slurm_msg = type { %struct.sockaddr_storage, ptr, i32, i32, i32, i8, i32, i8, i32, ptr, ptr, i32, ptr, ptr, i16, i8, i16, i16, %struct.forward, ptr, %struct.sockaddr_storage, ptr }
%struct.forward = type { %struct.slurm_node_alias_addrs_t, i16, i16, ptr, i32, i16, i16 }
%struct.slurm_node_alias_addrs_t = type { i64, ptr, ptr, i32, ptr }
%struct.sockaddr_storage = type { i16, [118 x i8], i64 }
%struct.return_code_msg = type { i32 }
%struct.container_id_request_msg_t = type { i16, ptr, i32 }
%struct.container_id_response_msg_t = type { ptr }

@working_cluster_rec = external global ptr, align 8

; Function Attrs: nounwind uwtable
define dso_local i32 @slurm_find_step_ids_by_container_id(i16 noundef zeroext %0, i32 noundef %1, ptr noundef %2, ptr noundef %3) #0 {
  %5 = alloca i32, align 4
  %6 = alloca i16, align 2
  %7 = alloca i32, align 4
  %8 = alloca ptr, align 8
  %9 = alloca ptr, align 8
  %10 = alloca i32, align 4
  %11 = alloca %struct.slurm_msg, align 8
  %12 = alloca %struct.slurm_msg, align 8
  %13 = alloca %struct.container_id_request_msg_t, align 8
  %14 = alloca ptr, align 8
  %15 = alloca i32, align 4
  store i16 %0, ptr %6, align 2
  store i32 %1, ptr %7, align 4
  store ptr %2, ptr %8, align 8
  store ptr %3, ptr %9, align 8
  call void @llvm.lifetime.start.p0(i64 4, ptr %10) #8
  call void @llvm.lifetime.start.p0(i64 424, ptr %11) #8
  call void @llvm.lifetime.start.p0(i64 424, ptr %12) #8
  call void @llvm.lifetime.start.p0(i64 24, ptr %13) #8
  call void @llvm.memset.p0.i64(ptr align 8 %13, i8 0, i64 24, i1 false)
  call void @llvm.lifetime.start.p0(i64 8, ptr %14) #8
  call void @slurm_msg_t_init(ptr noundef %11)
  call void @slurm_msg_t_init(ptr noundef %12)
  %16 = load i32, ptr %7, align 4
  %17 = getelementptr inbounds nuw %struct.container_id_request_msg_t, ptr %13, i32 0, i32 2
  store i32 %16, ptr %17, align 8
  %18 = load ptr, ptr %8, align 8
  %19 = call ptr @xstrdup(ptr noundef %18)
  %20 = getelementptr inbounds nuw %struct.container_id_request_msg_t, ptr %13, i32 0, i32 1
  store ptr %19, ptr %20, align 8
  %21 = load i16, ptr %6, align 2
  %22 = getelementptr inbounds nuw %struct.container_id_request_msg_t, ptr %13, i32 0, i32 0
  store i16 %21, ptr %22, align 8
  %23 = getelementptr inbounds nuw %struct.slurm_msg, ptr %11, i32 0, i32 16
  store i16 5008, ptr %23, align 4
  %24 = getelementptr inbounds nuw %struct.slurm_msg, ptr %11, i32 0, i32 13
  store ptr %13, ptr %24, align 8
  %25 = load ptr, ptr @working_cluster_rec, align 8
  %26 = call i32 @slurm_send_recv_controller_msg(ptr noundef %11, ptr noundef %12, ptr noundef %25)
  %27 = icmp ne i32 %26, 0
  br i1 %27, label %28, label %31

28:                                               ; preds = %4
  %29 = call ptr @__errno_location() #9
  %30 = load i32, ptr %29, align 4
  store i32 %30, ptr %5, align 4
  store i32 1, ptr %15, align 4
  br label %65

31:                                               ; preds = %4
  %32 = getelementptr inbounds nuw %struct.slurm_msg, ptr %12, i32 0, i32 16
  %33 = load i16, ptr %32, align 4
  %34 = zext i16 %33 to i32
  switch i32 %34, label %56 [
    i32 5009, label %35
    i32 8001, label %51
  ]

35:                                               ; preds = %31
  %36 = getelementptr inbounds nuw %struct.slurm_msg, ptr %12, i32 0, i32 13
  %37 = load ptr, ptr %36, align 8
  store ptr %37, ptr %14, align 8
  %38 = icmp ne ptr %37, null
  br i1 %38, label %39, label %50

39:                                               ; preds = %35
  %40 = load ptr, ptr %14, align 8
  %41 = getelementptr inbounds nuw %struct.container_id_response_msg_t, ptr %40, i32 0, i32 0
  %42 = load ptr, ptr %41, align 8
  %43 = icmp ne ptr %42, null
  br i1 %43, label %44, label %50

44:                                               ; preds = %39
  %45 = load ptr, ptr %9, align 8
  %46 = load ptr, ptr %14, align 8
  %47 = getelementptr inbounds nuw %struct.container_id_response_msg_t, ptr %46, i32 0, i32 0
  %48 = load ptr, ptr %47, align 8
  %49 = call i32 @list_transfer(ptr noundef %45, ptr noundef %48)
  br label %50

50:                                               ; preds = %44, %39, %35
  store i32 0, ptr %10, align 4
  br label %57

51:                                               ; preds = %31
  %52 = getelementptr inbounds nuw %struct.slurm_msg, ptr %12, i32 0, i32 13
  %53 = load ptr, ptr %52, align 8
  %54 = getelementptr inbounds nuw %struct.return_code_msg, ptr %53, i32 0, i32 0
  %55 = load i32, ptr %54, align 4
  store i32 %55, ptr %10, align 4
  br label %57

56:                                               ; preds = %31
  store i32 1000, ptr %10, align 4
  br label %57

57:                                               ; preds = %56, %51, %50
  %58 = getelementptr inbounds nuw %struct.slurm_msg, ptr %12, i32 0, i32 16
  %59 = load i16, ptr %58, align 4
  %60 = zext i16 %59 to i32
  %61 = getelementptr inbounds nuw %struct.slurm_msg, ptr %12, i32 0, i32 13
  %62 = load ptr, ptr %61, align 8
  %63 = call i32 @slurm_free_msg_data(i32 noundef %60, ptr noundef %62)
  %64 = load i32, ptr %10, align 4
  store i32 %64, ptr %5, align 4
  store i32 1, ptr %15, align 4
  br label %65

65:                                               ; preds = %57, %28
  call void @llvm.lifetime.end.p0(i64 8, ptr %14) #8
  call void @llvm.lifetime.end.p0(i64 24, ptr %13) #8
  call void @llvm.lifetime.end.p0(i64 424, ptr %12) #8
  call void @llvm.lifetime.end.p0(i64 424, ptr %11) #8
  call void @llvm.lifetime.end.p0(i64 4, ptr %10) #8
  %66 = load i32, ptr %5, align 4
  ret i32 %66
}