; Function Attrs: nounwind uwtable
define dso_local i32 @slurm_find_step_ids_by_container_id(i16 noundef zeroext %0, i32 noundef %1, ptr noundef %2, ptr noundef %3) local_unnamed_addr #0 {
  %5 = alloca %struct.slurm_msg, align 8
  %6 = alloca %struct.slurm_msg, align 8
  %7 = alloca %struct.container_id_request_msg_t, align 8
  call void @llvm.lifetime.start.p0(i64 424, ptr nonnull %5) #11
  call void @llvm.lifetime.start.p0(i64 424, ptr nonnull %6) #11
  call void @llvm.lifetime.start.p0(i64 24, ptr nonnull %7) #11
  call void @llvm.memset.p0.i64(ptr noundef nonnull align 8 dereferenceable(24) %7, i8 0, i64 24, i1 false)
  call void @slurm_msg_t_init(ptr noundef nonnull %5) #11
  call void @slurm_msg_t_init(ptr noundef nonnull %6) #11
  %8 = getelementptr inbounds nuw i8, ptr %7, i64 16
  store i32 %1, ptr %8, align 8
  %9 = call ptr @xstrdup(ptr noundef %2) #11
  %10 = getelementptr inbounds nuw i8, ptr %7, i64 8
  store ptr %9, ptr %10, align 8
  store i16 %0, ptr %7, align 8
  %11 = getelementptr inbounds nuw i8, ptr %5, i64 212
  store i16 5008, ptr %11, align 4
  %12 = getelementptr inbounds nuw i8, ptr %5, i64 200
  store ptr %7, ptr %12, align 8
  %13 = load ptr, ptr @working_cluster_rec, align 8
  %14 = call i32 @slurm_send_recv_controller_msg(ptr noundef nonnull %5, ptr noundef nonnull %6, ptr noundef %13) #11
  %.not = icmp eq i32 %14, 0
  br i1 %.not, label %18, label %15

15:                                               ; preds = %4
  %16 = tail call ptr @__errno_location() #12
  %17 = load i32, ptr %16, align 4
  br label %38

18:                                               ; preds = %4
  %19 = getelementptr inbounds nuw i8, ptr %6, i64 212
  %20 = load i16, ptr %19, align 4
  switch i16 %20, label %32 [
    i16 5009, label %21
    i16 8001, label %28
  ]

21:                                               ; preds = %18
  %22 = getelementptr inbounds nuw i8, ptr %6, i64 200
  %23 = load ptr, ptr %22, align 8
  %.not10 = icmp eq ptr %23, null
  br i1 %.not10, label %32, label %24

24:                                               ; preds = %21
  %25 = load ptr, ptr %23, align 8
  %.not11 = icmp eq ptr %25, null
  br i1 %.not11, label %32, label %26

26:                                               ; preds = %24
  %27 = call i32 @list_transfer(ptr noundef %3, ptr noundef nonnull %25) #11
  %.pre = load i16, ptr %19, align 4
  br label %32

28:                                               ; preds = %18
  %29 = getelementptr inbounds nuw i8, ptr %6, i64 200
  %30 = load ptr, ptr %29, align 8
  %31 = load i32, ptr %30, align 4
  br label %32

32:                                               ; preds = %18, %21, %24, %26, %28
  %33 = phi i16 [ 8001, %28 ], [ %.pre, %26 ], [ 5009, %24 ], [ 5009, %21 ], [ %20, %18 ]
  %.07 = phi i32 [ %31, %28 ], [ 0, %26 ], [ 0, %24 ], [ 0, %21 ], [ 1000, %18 ]
  %34 = zext i16 %33 to i32
  %35 = getelementptr inbounds nuw i8, ptr %6, i64 200
  %36 = load ptr, ptr %35, align 8
  %37 = call i32 @slurm_free_msg_data(i32 noundef %34, ptr noundef %36) #11
  br label %38

38:                                               ; preds = %32, %15
  %.0 = phi i32 [ %17, %15 ], [ %.07, %32 ]
  call void @llvm.lifetime.end.p0(i64 24, ptr nonnull %7) #11
  call void @llvm.lifetime.end.p0(i64 424, ptr nonnull %6) #11
  call void @llvm.lifetime.end.p0(i64 424, ptr nonnull %5) #11
  ret i32 %.0
}